target datalayout = "e-m:e-p270:32:32-p271:32:32-p272:64:64-i64:64-i128:128-f80:128-n8:16:32:64-S128"
target triple = "x86_64-pc-linux-gnu"

%struct.lua_TValue = type { %union.Value, [1 x i32], i32 }
%union.Value = type { ptr }
%struct.LuaTable = type { i8, i8, i8, i8, i8, i8, i8, i8, i32, %union.anon, ptr, ptr, ptr, ptr }
%union.anon = type { i32 }

@luaO_nilobject_ = external hidden global %struct.lua_TValue, align 8
@.str = private unnamed_addr constant [19 x i8] c"table index is nil\00", align 1
@.str.1 = private unnamed_addr constant [19 x i8] c"table index is NaN\00", align 1
@.str.2 = private unnamed_addr constant [25 x i8] c"table index contains NaN\00", align 1

; Function Attrs: inlinehint mustprogress nounwind uwtable
define linkonce_odr dso_local noundef zeroext i1 @_Z13luai_vecisnanPKf(ptr noundef %0) #6 comdat {
  %2 = alloca ptr, align 8
  store ptr %0, ptr %2, align 8, !tbaa !81
  %3 = load ptr, ptr %2, align 8, !tbaa !81
  %4 = getelementptr inbounds float, ptr %3, i64 0
  %5 = load float, ptr %4, align 4, !tbaa !83
  %6 = load ptr, ptr %2, align 8, !tbaa !81
  %7 = getelementptr inbounds float, ptr %6, i64 0
  %8 = load float, ptr %7, align 4, !tbaa !83
  %9 = fcmp une float %5, %8
  br i1 %9, label %26, label %10

10:                                               ; preds = %1
  %11 = load ptr, ptr %2, align 8, !tbaa !81
  %12 = getelementptr inbounds float, ptr %11, i64 1
  %13 = load float, ptr %12, align 4, !tbaa !83
  %14 = load ptr, ptr %2, align 8, !tbaa !81
  %15 = getelementptr inbounds float, ptr %14, i64 1
  %16 = load float, ptr %15, align 4, !tbaa !83
  %17 = fcmp une float %13, %16
  br i1 %17, label %26, label %18

18:                                               ; preds = %10
  %19 = load ptr, ptr %2, align 8, !tbaa !81
  %20 = getelementptr inbounds float, ptr %19, i64 2
  %21 = load float, ptr %20, align 4, !tbaa !83
  %22 = load ptr, ptr %2, align 8, !tbaa !81
  %23 = getelementptr inbounds float, ptr %22, i64 2
  %24 = load float, ptr %23, align 4, !tbaa !83
  %25 = fcmp une float %21, %24
  br label %26

26:                                               ; preds = %18, %10, %1
  %27 = phi i1 [ true, %10 ], [ true, %1 ], [ %25, %18 ]
  ret i1 %27
}

; Function Attrs: mustprogress uwtable
define hidden noundef ptr @_Z11luaH_newkeyP9lua_StateP8LuaTablePK10lua_TValue(ptr noundef %0, ptr noundef %1, ptr noundef %2) #0 {
  %4 = alloca ptr, align 8
  %5 = alloca ptr, align 8
  %6 = alloca ptr, align 8
  store ptr %0, ptr %4, align 8, !tbaa !4
  store ptr %1, ptr %5, align 8, !tbaa !9
  store ptr %2, ptr %6, align 8, !tbaa !11
  %7 = load ptr, ptr %6, align 8, !tbaa !11
  %8 = getelementptr inbounds nuw %struct.lua_TValue, ptr %7, i32 0, i32 2
  %9 = load i32, ptr %8, align 4, !tbaa !20
  %10 = icmp eq i32 %9, 0
  br i1 %10, label %11, label %13

11:                                               ; preds = %3
  %12 = load ptr, ptr %4, align 8, !tbaa !4
  call void (ptr, ptr, ...) @_Z14luaG_runerrorLP9lua_StatePKcz(ptr noundef %12, ptr noundef @.str) #8
  unreachable

13:                                               ; preds = %3
  %14 = load ptr, ptr %6, align 8, !tbaa !11
  %15 = getelementptr inbounds nuw %struct.lua_TValue, ptr %14, i32 0, i32 2
  %16 = load i32, ptr %15, align 4, !tbaa !20
  %17 = icmp eq i32 %16, 3
  br i1 %17, label %18, label %28

18:                                               ; preds = %13
  %19 = load ptr, ptr %6, align 8, !tbaa !11
  %20 = getelementptr inbounds nuw %struct.lua_TValue, ptr %19, i32 0, i32 0
  %21 = load double, ptr %20, align 8, !tbaa !22
  %22 = load ptr, ptr %6, align 8, !tbaa !11
  %23 = getelementptr inbounds nuw %struct.lua_TValue, ptr %22, i32 0, i32 0
  %24 = load double, ptr %23, align 8, !tbaa !22
  %25 = fcmp une double %21, %24
  br i1 %25, label %26, label %28

26:                                               ; preds = %18
  %27 = load ptr, ptr %4, align 8, !tbaa !4
  call void (ptr, ptr, ...) @_Z14luaG_runerrorLP9lua_StatePKcz(ptr noundef %27, ptr noundef @.str.1) #8
  unreachable

28:                                               ; preds = %18, %13
  %29 = load ptr, ptr %6, align 8, !tbaa !11
  %30 = getelementptr inbounds nuw %struct.lua_TValue, ptr %29, i32 0, i32 2
  %31 = load i32, ptr %30, align 4, !tbaa !20
  %32 = icmp eq i32 %31, 4
  br i1 %32, label %33, label %40

33:                                               ; preds = %28
  %34 = load ptr, ptr %6, align 8, !tbaa !11
  %35 = getelementptr inbounds nuw %struct.lua_TValue, ptr %34, i32 0, i32 0
  %36 = getelementptr inbounds [2 x float], ptr %35, i64 0, i64 0
  %37 = call noundef zeroext i1 @_Z13luai_vecisnanPKf(ptr noundef %36)
  br i1 %37, label %38, label %40

38:                                               ; preds = %33
  %39 = load ptr, ptr %4, align 8, !tbaa !4
  call void (ptr, ptr, ...) @_Z14luaG_runerrorLP9lua_StatePKcz(ptr noundef %39, ptr noundef @.str.2) #8
  unreachable

40:                                               ; preds = %33, %28
  br label %41

41:                                               ; preds = %40
  br label %42

42:                                               ; preds = %41
  %43 = load ptr, ptr %4, align 8, !tbaa !4
  %44 = load ptr, ptr %5, align 8, !tbaa !9
  %45 = load ptr, ptr %6, align 8, !tbaa !11
  %46 = call noundef ptr @_ZL6newkeyP9lua_StateP8LuaTablePK10lua_TValue(ptr noundef %43, ptr noundef %44, ptr noundef %45)
  ret ptr %46
}

; Function Attrs: mustprogress uwtable
define hidden noundef ptr @_Z8luaH_setP9lua_StateP8LuaTablePK10lua_TValue(ptr noundef %0, ptr noundef %1, ptr noundef %2) #0 {
  %4 = alloca ptr, align 8
  %5 = alloca ptr, align 8
  %6 = alloca ptr, align 8
  %7 = alloca ptr, align 8
  %8 = alloca ptr, align 8
  %9 = alloca i32, align 4
  store ptr %0, ptr %5, align 8, !tbaa !4
  store ptr %1, ptr %6, align 8, !tbaa !9
  store ptr %2, ptr %7, align 8, !tbaa !11
  call void @llvm.lifetime.start.p0(i64 8, ptr %8) #7
  %10 = load ptr, ptr %6, align 8, !tbaa !9
  %11 = load ptr, ptr %7, align 8, !tbaa !11
  %12 = call noundef ptr @_Z8luaH_getP8LuaTablePK10lua_TValue(ptr noundef %10, ptr noundef %11)
  store ptr %12, ptr %8, align 8, !tbaa !11
  %13 = load ptr, ptr %6, align 8, !tbaa !9
  %14 = getelementptr inbounds nuw %struct.LuaTable, ptr %13, i32 0, i32 3
  store i8 0, ptr %14, align 1, !tbaa !67
  %15 = load ptr, ptr %8, align 8, !tbaa !11
  %16 = icmp ne ptr %15, @luaO_nilobject_
  br i1 %16, label %17, label %19

17:                                               ; preds = %3
  %18 = load ptr, ptr %8, align 8, !tbaa !11
  store ptr %18, ptr %4, align 8
  store i32 1, ptr %9, align 4
  br label %24

19:                                               ; preds = %3
  %20 = load ptr, ptr %5, align 8, !tbaa !4
  %21 = load ptr, ptr %6, align 8, !tbaa !9
  %22 = load ptr, ptr %7, align 8, !tbaa !11
  %23 = call noundef ptr @_Z11luaH_newkeyP9lua_StateP8LuaTablePK10lua_TValue(ptr noundef %20, ptr noundef %21, ptr noundef %22)
  store ptr %23, ptr %4, align 8
  store i32 1, ptr %9, align 4
  br label %24

24:                                               ; preds = %19, %17
  call void @llvm.lifetime.end.p0(i64 8, ptr %8) #7
  %25 = load ptr, ptr %4, align 8
  ret ptr %25
}