; Function Attrs: mustprogress uwtable
define hidden noundef ptr @_Z8luaH_setP9lua_StateP8LuaTablePK10lua_TValue(ptr noundef %0, ptr noundef %1, ptr noundef %2) local_unnamed_addr #0 {
  %4 = tail call noundef ptr @_Z8luaH_getP8LuaTablePK10lua_TValue(ptr noundef %1, ptr noundef %2)
  %5 = getelementptr inbounds nuw i8, ptr %1, i64 3
  store i8 0, ptr %5, align 1, !tbaa !63
  %.not = icmp eq ptr %4, @luaO_nilobject_
  br i1 %.not, label %6, label %25

6:                                                ; preds = %3
  %7 = getelementptr inbounds nuw i8, ptr %2, i64 12
  %8 = load i32, ptr %7, align 4, !tbaa !4
  switch i32 %8, label %_Z11luaH_newkeyP9lua_StateP8LuaTablePK10lua_TValue.exit [
    i32 0, label %9
    i32 3, label %10
    i32 4, label %14
  ]

9:                                                ; preds = %6
  tail call void (ptr, ptr, ...) @_Z14luaG_runerrorLP9lua_StatePKcz(ptr noundef %0, ptr noundef nonnull @.str) #10
  unreachable

10:                                               ; preds = %6
  %11 = load double, ptr %2, align 8, !tbaa !16
  %12 = fcmp uno double %11, 0.000000e+00
  br i1 %12, label %13, label %_Z11luaH_newkeyP9lua_StateP8LuaTablePK10lua_TValue.exit

13:                                               ; preds = %10
  tail call void (ptr, ptr, ...) @_Z14luaG_runerrorLP9lua_StatePKcz(ptr noundef %0, ptr noundef nonnull @.str.1) #10
  unreachable

14:                                               ; preds = %6
  %15 = load float, ptr %2, align 4, !tbaa !68
  %16 = fcmp uno float %15, 0.000000e+00
  br i1 %16, label %_Z13luai_vecisnanPKf.exit.thread.i, label %17

17:                                               ; preds = %14
  %18 = getelementptr inbounds nuw i8, ptr %2, i64 4
  %19 = load float, ptr %18, align 4, !tbaa !68
  %20 = fcmp uno float %19, 0.000000e+00
  br i1 %20, label %_Z13luai_vecisnanPKf.exit.thread.i, label %_Z13luai_vecisnanPKf.exit.i

_Z13luai_vecisnanPKf.exit.i:                      ; preds = %17
  %21 = getelementptr inbounds nuw i8, ptr %2, i64 8
  %22 = load float, ptr %21, align 4, !tbaa !68
  %23 = fcmp uno float %22, 0.000000e+00
  br i1 %23, label %_Z13luai_vecisnanPKf.exit.thread.i, label %_Z11luaH_newkeyP9lua_StateP8LuaTablePK10lua_TValue.exit

_Z13luai_vecisnanPKf.exit.thread.i:               ; preds = %_Z13luai_vecisnanPKf.exit.i, %17, %14
  tail call void (ptr, ptr, ...) @_Z14luaG_runerrorLP9lua_StatePKcz(ptr noundef %0, ptr noundef nonnull @.str.2) #10
  unreachable

_Z11luaH_newkeyP9lua_StateP8LuaTablePK10lua_TValue.exit: ; preds = %6, %10, %_Z13luai_vecisnanPKf.exit.i
  %24 = tail call fastcc noundef ptr @_ZL6newkeyP9lua_StateP8LuaTablePK10lua_TValue(ptr noundef %0, ptr noundef nonnull %1, ptr noundef nonnull %2)
  br label %25

25:                                               ; preds = %3, %_Z11luaH_newkeyP9lua_StateP8LuaTablePK10lua_TValue.exit
  %.0 = phi ptr [ %24, %_Z11luaH_newkeyP9lua_StateP8LuaTablePK10lua_TValue.exit ], [ %4, %3 ]
  ret ptr %.0
}